; Function Attrs: mustprogress uwtable
define noundef i32 @_ZNK8proxygen26PassThroughHTTPCodecFilter18numOutgoingStreamsEv(ptr nocapture noundef nonnull readonly align 8 dereferenceable(72) %this) unnamed_addr #3 align 2 {
entry:
  %callback_ = getelementptr inbounds i8, ptr %this, i64 32
  %0 = load ptr, ptr %callback_, align 8
  %vtable = load ptr, ptr %0, align 8
  %vfn = getelementptr inbounds i8, ptr %vtable, i64 208
  %1 = load ptr, ptr %vfn, align 8
  %call = tail call noundef i32 %1(ptr noundef nonnull align 8 dereferenceable(8) %0)
  ret i32 %call
}